target datalayout = "e-m:e-p270:32:32-p271:32:32-p272:64:64-i64:64-i128:128-f80:128-n8:16:32:64-S128"
target triple = "x86_64-pc-linux-gnu"

@.str.1 = private unnamed_addr constant [103 x i8] c"generated/home/dtcxzyw/WorkSpace/Projects/compilers/llvm-opt-benchmark/bench/hdf5/hdf5/src/H5FDspace.c\00", align 1
@H5E_VFL_g = external global i64, align 8
@H5E_CANTMARKDIRTY_g = external global i64, align 8
@.str.5 = private unnamed_addr constant [33 x i8] c"unable to mark EOA info as dirty\00", align 1
@H5E_CANTFREE_g = external global i64, align 8
@__func__.H5FD_free = private unnamed_addr constant [10 x i8] c"H5FD_free\00", align 1
@.str.10 = private unnamed_addr constant [27 x i8] c"real 'free' request failed\00", align 1

; Function Attrs: nounwind uwtable
define i32 @H5FD_free(ptr noundef %0, i32 noundef %1, ptr noundef %2, i64 noundef %3, i64 noundef %4) #0 {
  %6 = alloca ptr, align 8
  %7 = alloca i32, align 4
  %8 = alloca ptr, align 8
  %9 = alloca i64, align 8
  %10 = alloca i64, align 8
  %11 = alloca i32, align 4
  %12 = alloca i8, align 1
  store ptr %0, ptr %6, align 8
  store i32 %1, ptr %7, align 4
  store ptr %2, ptr %8, align 8
  store i64 %3, ptr %9, align 8
  store i64 %4, ptr %10, align 8
  store i32 0, ptr %11, align 4
  store i8 0, ptr %12, align 1
  %13 = load ptr, ptr %6, align 8
  %14 = load i32, ptr %7, align 4
  %15 = load i64, ptr %9, align 8
  %16 = load i64, ptr %10, align 8
  %17 = call i32 @H5FD__free_real(ptr noundef %13, i32 noundef %14, i64 noundef %15, i64 noundef %16)
  %18 = icmp slt i32 %17, 0
  br i1 %18, label %19, label %34

19:                                               ; preds = %5
  br label %20

20:                                               ; preds = %19
  br label %21

21:                                               ; preds = %20
  br label %22

22:                                               ; preds = %21
  %23 = load i64, ptr @H5E_VFL_g, align 8
  %24 = load i64, ptr @H5E_CANTFREE_g, align 8
  %25 = call i32 (ptr, ptr, i32, i64, i64, ptr, ...) @H5E_printf_stack(ptr noundef @.str.1, ptr noundef @__func__.H5FD_free, i32 noundef 358, i64 noundef %23, i64 noundef %24, ptr noundef @.str.10)
  br label %26

26:                                               ; preds = %22
  store i8 1, ptr %12, align 1
  %27 = load i8, ptr %12, align 1
  %28 = trunc i8 %27 to i1
  %29 = zext i1 %28 to i8
  store i8 %29, ptr %12, align 1
  br label %30

30:                                               ; preds = %26
  br label %31

31:                                               ; preds = %30
  store i32 -1, ptr %11, align 4
  br label %54

32:                                               ; No predecessors!
  br label %33

33:                                               ; preds = %32
  br label %34

34:                                               ; preds = %33, %5
  %35 = load ptr, ptr %8, align 8
  %36 = call i32 @H5F_eoa_dirty(ptr noundef %35)
  %37 = icmp slt i32 %36, 0
  br i1 %37, label %38, label %53

38:                                               ; preds = %34
  br label %39

39:                                               ; preds = %38
  br label %40

40:                                               ; preds = %39
  br label %41

41:                                               ; preds = %40
  %42 = load i64, ptr @H5E_VFL_g, align 8
  %43 = load i64, ptr @H5E_CANTMARKDIRTY_g, align 8
  %44 = call i32 (ptr, ptr, i32, i64, i64, ptr, ...) @H5E_printf_stack(ptr noundef @.str.1, ptr noundef @__func__.H5FD_free, i32 noundef 362, i64 noundef %42, i64 noundef %43, ptr noundef @.str.5)
  br label %45

45:                                               ; preds = %41
  store i8 1, ptr %12, align 1
  %46 = load i8, ptr %12, align 1
  %47 = trunc i8 %46 to i1
  %48 = zext i1 %47 to i8
  store i8 %48, ptr %12, align 1
  br label %49

49:                                               ; preds = %45
  br label %50

50:                                               ; preds = %49
  store i32 -1, ptr %11, align 4
  br label %54

51:                                               ; No predecessors!
  br label %52

52:                                               ; preds = %51
  br label %53

53:                                               ; preds = %52, %34
  br label %54

54:                                               ; preds = %53, %50, %31
  %55 = load i32, ptr %11, align 4
  ret i32 %55
}