; Function Attrs: nounwind uwtable
define range(i32 -1, 1) i32 @H5FD_free(ptr noundef %0, i32 noundef %1, ptr noundef %2, i64 noundef %3, i64 noundef %4) local_unnamed_addr #0 {
  %6 = tail call i32 @H5FD__free_real(ptr noundef %0, i32 noundef %1, i64 noundef %3, i64 noundef %4)
  %7 = icmp slt i32 %6, 0
  br i1 %7, label %8, label %12

8:                                                ; preds = %5
  %9 = load i64, ptr @H5E_VFL_g, align 8
  %10 = load i64, ptr @H5E_CANTFREE_g, align 8
  %11 = tail call i32 (ptr, ptr, i32, i64, i64, ptr, ...) @H5E_printf_stack(ptr noundef nonnull @.str.1, ptr noundef nonnull @__func__.H5FD_free, i32 noundef 358, i64 noundef %9, i64 noundef %10, ptr noundef nonnull @.str.10) #2
  br label %19

12:                                               ; preds = %5
  %13 = tail call i32 @H5F_eoa_dirty(ptr noundef %2) #2
  %14 = icmp slt i32 %13, 0
  br i1 %14, label %15, label %19

15:                                               ; preds = %12
  %16 = load i64, ptr @H5E_VFL_g, align 8
  %17 = load i64, ptr @H5E_CANTMARKDIRTY_g, align 8
  %18 = tail call i32 (ptr, ptr, i32, i64, i64, ptr, ...) @H5E_printf_stack(ptr noundef nonnull @.str.1, ptr noundef nonnull @__func__.H5FD_free, i32 noundef 362, i64 noundef %16, i64 noundef %17, ptr noundef nonnull @.str.5) #2
  br label %19

19:                                               ; preds = %12, %15, %8
  %.0 = phi i32 [ -1, %8 ], [ -1, %15 ], [ 0, %12 ]
  ret i32 %.0
}